target datalayout = "e-m:e-p270:32:32-p271:32:32-p272:64:64-i64:64-i128:128-f80:128-n8:16:32:64-S128"
target triple = "x86_64-pc-linux-gnu"

%struct._zval_struct = type { %union._zend_value, %union.anon.3, %union.anon.6 }
%union._zend_value = type { i64 }
%union.anon.3 = type { i32 }
%union.anon.6 = type { i32 }
%struct._zend_array = type { %struct._zend_refcounted_h, %union.anon.8, i32, %union.anon.10, i32, i32, i32, i32, i64, ptr }
%struct._zend_refcounted_h = type { i32, %union.anon.1 }
%union.anon.1 = type { i32 }
%union.anon.8 = type { i32 }
%union.anon.10 = type { ptr }
%struct._zend_object_iterator_funcs = type { ptr, ptr, ptr, ptr, ptr, ptr, ptr, ptr }
%struct._pdo_stmt_t = type { ptr, ptr, [6 x i8], i16, ptr, ptr, ptr, ptr, i32, i32, %union.anon, ptr, ptr, ptr, i64, ptr, ptr, ptr, %struct._zend_object }
%union.anon = type { %struct.anon.0 }
%struct.anon.0 = type { %struct._zend_fcall_info_cache }
%struct._zend_fcall_info_cache = type { ptr, ptr, ptr, ptr, ptr }
%struct._zend_object = type { %struct._zend_refcounted_h, i32, i32, ptr, ptr, ptr, [1 x %struct._zval_struct] }
%struct._zend_string = type { %struct._zend_refcounted_h, i64, i64, [1 x i8] }
%struct._zend_class_entry = type { i8, ptr, %union.anon.7, i32, i32, i32, i32, ptr, ptr, ptr, %struct._zend_array, %struct._zend_array, %struct._zend_array, ptr, ptr, ptr, ptr, ptr, ptr, ptr, ptr, ptr, ptr, ptr, ptr, ptr, ptr, ptr, ptr, ptr, ptr, ptr, %union.anon.11, ptr, ptr, ptr, ptr, i32, i32, i32, i32, %union.anon.12, ptr, ptr, ptr, ptr, i32, ptr, ptr, %union.anon.13 }
%union.anon.7 = type { ptr }
%union.anon.11 = type { ptr }
%union.anon.12 = type { ptr }
%union.anon.13 = type { %struct.anon.14 }
%struct.anon.14 = type { ptr, i32, i32 }
%struct._zend_refcounted = type { %struct._zend_refcounted_h }
%struct.anon.4 = type { i8, i8, %union.anon.5 }
%union.anon.5 = type { i16 }
%struct.php_pdo_iterator = type { %struct._zend_object_iterator, i64, %struct._zval_struct }
%struct._zend_object_iterator = type { %struct._zend_object, %struct._zval_struct, ptr, i64 }

@.str = private unnamed_addr constant [27 x i8] c"%s object is uninitialized\00", align 1
@.str.1 = private unnamed_addr constant [6 x i8] c"00000\00", align 1
@.str.39 = private unnamed_addr constant [53 x i8] c"An iterator cannot be used with foreach by reference\00", align 1
@pdo_stmt_iter_funcs = internal constant %struct._zend_object_iterator_funcs { ptr @pdo_stmt_iter_dtor, ptr @pdo_stmt_iter_valid, ptr @pdo_stmt_iter_get_data, ptr @pdo_stmt_iter_get_key, ptr @pdo_stmt_iter_move_forwards, ptr null, ptr null, ptr null }, align 8

; Function Attrs: alwaysinline nounwind uwtable
define internal i32 @zend_gc_addref(ptr noundef %0) #3 {
  %2 = alloca ptr, align 8
  store ptr %0, ptr %2, align 8, !tbaa !109
  br label %3

3:                                                ; preds = %1
  br label %4

4:                                                ; preds = %3
  %5 = load ptr, ptr %2, align 8, !tbaa !109
  %6 = getelementptr inbounds nuw %struct._zend_refcounted_h, ptr %5, i32 0, i32 0
  %7 = load i32, ptr %6, align 4, !tbaa !111
  %8 = add i32 %7, 1
  store i32 %8, ptr %6, align 4, !tbaa !111
  ret i32 %8
}

; Function Attrs: alwaysinline nounwind uwtable
define internal i32 @zval_addref_p(ptr noundef %0) #3 {
  %2 = alloca ptr, align 8
  store ptr %0, ptr %2, align 8, !tbaa !47
  %3 = load ptr, ptr %2, align 8, !tbaa !47
  %4 = getelementptr inbounds nuw %struct._zval_struct, ptr %3, i32 0, i32 1
  %5 = getelementptr inbounds nuw %struct.anon.4, ptr %4, i32 0, i32 1
  %6 = load i8, ptr %5, align 1, !tbaa !45
  %7 = zext i8 %6 to i32
  %8 = icmp ne i32 %7, 0
  call void @llvm.assume(i1 %8)
  %9 = load ptr, ptr %2, align 8, !tbaa !47
  %10 = getelementptr inbounds nuw %struct._zval_struct, ptr %9, i32 0, i32 0
  %11 = load ptr, ptr %10, align 8, !tbaa !45
  %12 = getelementptr inbounds nuw %struct._zend_refcounted, ptr %11, i32 0, i32 0
  %13 = call i32 @zend_gc_addref(ptr noundef %12)
  ret i32 %13
}

; Function Attrs: inlinehint nounwind uwtable
define internal ptr @php_pdo_stmt_fetch_object(ptr noundef %0) #7 {
  %2 = alloca ptr, align 8
  store ptr %0, ptr %2, align 8, !tbaa !108
  %3 = load ptr, ptr %2, align 8, !tbaa !108
  %4 = getelementptr inbounds i8, ptr %3, i64 -160
  ret ptr %4
}

; Function Attrs: nounwind uwtable
define hidden ptr @pdo_stmt_iter_get(ptr noundef %0, ptr noundef %1, i32 noundef %2) #0 {
  %4 = alloca ptr, align 8
  %5 = alloca ptr, align 8
  %6 = alloca ptr, align 8
  %7 = alloca i32, align 4
  %8 = alloca ptr, align 8
  %9 = alloca i32, align 4
  %10 = alloca ptr, align 8
  %11 = alloca ptr, align 8
  store ptr %0, ptr %5, align 8, !tbaa !123
  store ptr %1, ptr %6, align 8, !tbaa !47
  store i32 %2, ptr %7, align 4, !tbaa !26
  %12 = load i32, ptr %7, align 4, !tbaa !26
  %13 = icmp ne i32 %12, 0
  br i1 %13, label %14, label %15

14:                                               ; preds = %3
  call void (ptr, ptr, ...) @zend_throw_error(ptr noundef null, ptr noundef @.str.39)
  store ptr null, ptr %4, align 8
  br label %80

15:                                               ; preds = %3
  call void @llvm.lifetime.start.p0(i64 8, ptr %8) #14
  %16 = load ptr, ptr %6, align 8, !tbaa !47
  %17 = getelementptr inbounds nuw %struct._zval_struct, ptr %16, i32 0, i32 0
  %18 = load ptr, ptr %17, align 8, !tbaa !45
  %19 = call ptr @php_pdo_stmt_fetch_object(ptr noundef %18)
  store ptr %19, ptr %8, align 8, !tbaa !4
  %20 = load ptr, ptr %8, align 8, !tbaa !4
  %21 = getelementptr inbounds nuw %struct._pdo_stmt_t, ptr %20, i32 0, i32 12
  %22 = load ptr, ptr %21, align 8, !tbaa !30
  %23 = icmp ne ptr %22, null
  br i1 %23, label %30, label %24

24:                                               ; preds = %15
  %25 = load ptr, ptr %5, align 8, !tbaa !123
  %26 = getelementptr inbounds nuw %struct._zend_class_entry, ptr %25, i32 0, i32 1
  %27 = load ptr, ptr %26, align 8, !tbaa !57
  %28 = getelementptr inbounds nuw %struct._zend_string, ptr %27, i32 0, i32 3
  %29 = getelementptr inbounds [1 x i8], ptr %28, i64 0, i64 0
  call void (ptr, ptr, ...) @zend_throw_error(ptr noundef null, ptr noundef @.str, ptr noundef %29)
  store ptr null, ptr %4, align 8
  store i32 1, ptr %9, align 4
  br label %79

30:                                               ; preds = %15
  call void @llvm.lifetime.start.p0(i64 8, ptr %10) #14
  %31 = call noalias ptr @_ecalloc(i64 noundef 1, i64 noundef 112) #15
  store ptr %31, ptr %10, align 8, !tbaa !163
  %32 = load ptr, ptr %10, align 8, !tbaa !163
  %33 = getelementptr inbounds nuw %struct.php_pdo_iterator, ptr %32, i32 0, i32 0
  call void @zend_iterator_init(ptr noundef %33)
  %34 = load ptr, ptr %10, align 8, !tbaa !163
  %35 = getelementptr inbounds nuw %struct.php_pdo_iterator, ptr %34, i32 0, i32 0
  %36 = getelementptr inbounds nuw %struct._zend_object_iterator, ptr %35, i32 0, i32 2
  store ptr @pdo_stmt_iter_funcs, ptr %36, align 8, !tbaa !165
  %37 = load ptr, ptr %6, align 8, !tbaa !47
  %38 = call i32 @zval_addref_p(ptr noundef %37)
  br label %39

39:                                               ; preds = %30
  call void @llvm.lifetime.start.p0(i64 8, ptr %11) #14
  %40 = load ptr, ptr %10, align 8, !tbaa !163
  %41 = getelementptr inbounds nuw %struct.php_pdo_iterator, ptr %40, i32 0, i32 0
  %42 = getelementptr inbounds nuw %struct._zend_object_iterator, ptr %41, i32 0, i32 1
  store ptr %42, ptr %11, align 8, !tbaa !47
  %43 = load ptr, ptr %6, align 8, !tbaa !47
  %44 = getelementptr inbounds nuw %struct._zval_struct, ptr %43, i32 0, i32 0
  %45 = load ptr, ptr %44, align 8, !tbaa !45
  %46 = load ptr, ptr %11, align 8, !tbaa !47
  %47 = getelementptr inbounds nuw %struct._zval_struct, ptr %46, i32 0, i32 0
  store ptr %45, ptr %47, align 8, !tbaa !45
  %48 = load ptr, ptr %11, align 8, !tbaa !47
  %49 = getelementptr inbounds nuw %struct._zval_struct, ptr %48, i32 0, i32 1
  store i32 776, ptr %49, align 8, !tbaa !45
  call void @llvm.lifetime.end.p0(i64 8, ptr %11) #14
  br label %50

50:                                               ; preds = %39
  br label %51

51:                                               ; preds = %50
  %52 = load ptr, ptr %8, align 8, !tbaa !4
  %53 = load ptr, ptr %10, align 8, !tbaa !163
  %54 = getelementptr inbounds nuw %struct.php_pdo_iterator, ptr %53, i32 0, i32 2
  %55 = call zeroext i1 @do_fetch(ptr noundef %52, ptr noundef %54, i32 noundef 0, i32 noundef 0, i64 noundef 0, ptr noundef null)
  br i1 %55, label %76, label %56

56:                                               ; preds = %51
  %57 = load ptr, ptr %8, align 8, !tbaa !4
  %58 = getelementptr inbounds nuw %struct._pdo_stmt_t, ptr %57, i32 0, i32 2
  %59 = getelementptr inbounds [6 x i8], ptr %58, i64 0, i64 0
  %60 = call i32 @strcmp(ptr noundef %59, ptr noundef @.str.1) #16
  %61 = icmp ne i32 %60, 0
  br i1 %61, label %62, label %67

62:                                               ; preds = %56
  %63 = load ptr, ptr %8, align 8, !tbaa !4
  %64 = getelementptr inbounds nuw %struct._pdo_stmt_t, ptr %63, i32 0, i32 12
  %65 = load ptr, ptr %64, align 8, !tbaa !30
  %66 = load ptr, ptr %8, align 8, !tbaa !4
  call void @pdo_handle_error(ptr noundef %65, ptr noundef %66)
  br label %67

67:                                               ; preds = %62, %56
  %68 = load ptr, ptr %10, align 8, !tbaa !163
  %69 = getelementptr inbounds nuw %struct.php_pdo_iterator, ptr %68, i32 0, i32 1
  store i64 -1, ptr %69, align 8, !tbaa !169
  br label %70

70:                                               ; preds = %67
  %71 = load ptr, ptr %10, align 8, !tbaa !163
  %72 = getelementptr inbounds nuw %struct.php_pdo_iterator, ptr %71, i32 0, i32 2
  %73 = getelementptr inbounds nuw %struct._zval_struct, ptr %72, i32 0, i32 1
  store i32 0, ptr %73, align 8, !tbaa !45
  br label %74

74:                                               ; preds = %70
  br label %75

75:                                               ; preds = %74
  br label %76

76:                                               ; preds = %75, %51
  %77 = load ptr, ptr %10, align 8, !tbaa !163
  %78 = getelementptr inbounds nuw %struct.php_pdo_iterator, ptr %77, i32 0, i32 0
  store ptr %78, ptr %4, align 8
  store i32 1, ptr %9, align 4
  call void @llvm.lifetime.end.p0(i64 8, ptr %10) #14
  br label %79

79:                                               ; preds = %76, %24
  call void @llvm.lifetime.end.p0(i64 8, ptr %8) #14
  br label %80

80:                                               ; preds = %79, %14
  %81 = load ptr, ptr %4, align 8
  ret ptr %81
}