; Function Attrs: nounwind uwtable
define hidden noundef ptr @pdo_stmt_iter_get(ptr noundef readonly captures(none) %0, ptr noundef readonly captures(none) %1, i32 noundef %2) #0 {
  %.not = icmp eq i32 %2, 0
  br i1 %.not, label %5, label %4

4:                                                ; preds = %3
  tail call void (ptr, ptr, ...) @zend_throw_error(ptr noundef null, ptr noundef nonnull @.str.39) #17
  br label %36

5:                                                ; preds = %3
  %6 = load ptr, ptr %1, align 8, !tbaa !37
  %7 = getelementptr inbounds i8, ptr %6, i64 -160
  %8 = getelementptr inbounds i8, ptr %6, i64 -48
  %9 = load ptr, ptr %8, align 8, !tbaa !27
  %.not19 = icmp eq ptr %9, null
  br i1 %.not19, label %10, label %14

10:                                               ; preds = %5
  %11 = getelementptr inbounds nuw i8, ptr %0, i64 8
  %12 = load ptr, ptr %11, align 8, !tbaa !46
  %13 = getelementptr inbounds nuw i8, ptr %12, i64 24
  tail call void (ptr, ptr, ...) @zend_throw_error(ptr noundef null, ptr noundef nonnull @.str, ptr noundef nonnull %13) #17
  br label %36

14:                                               ; preds = %5
  %15 = tail call noalias dereferenceable_or_null(112) ptr @_ecalloc(i64 noundef 1, i64 noundef 112) #16
  tail call void @zend_iterator_init(ptr noundef %15) #17
  %16 = getelementptr inbounds nuw i8, ptr %15, i64 72
  store ptr @pdo_stmt_iter_funcs, ptr %16, align 8, !tbaa !150
  %17 = getelementptr inbounds nuw i8, ptr %1, i64 9
  %18 = load i8, ptr %17, align 1, !tbaa !37
  %19 = icmp ne i8 %18, 0
  tail call void @llvm.assume(i1 %19)
  %20 = load ptr, ptr %1, align 8, !tbaa !37
  %21 = load i32, ptr %20, align 4, !tbaa !38
  %22 = add i32 %21, 1
  store i32 %22, ptr %20, align 4, !tbaa !38
  %23 = getelementptr inbounds nuw i8, ptr %15, i64 56
  %24 = load ptr, ptr %1, align 8, !tbaa !37
  store ptr %24, ptr %23, align 8, !tbaa !37
  %25 = getelementptr inbounds nuw i8, ptr %15, i64 64
  store i32 776, ptr %25, align 8, !tbaa !37
  %26 = getelementptr inbounds nuw i8, ptr %15, i64 96
  %27 = tail call fastcc zeroext i1 @do_fetch(ptr noundef nonnull %7, ptr noundef nonnull %26, i32 noundef 0, i32 noundef 0, i64 noundef 0, ptr noundef null)
  br i1 %27, label %36, label %28

28:                                               ; preds = %14
  %29 = getelementptr inbounds i8, ptr %6, i64 -144
  %30 = tail call i32 @strcmp(ptr noundef nonnull dereferenceable(1) %29, ptr noundef nonnull dereferenceable(6) @.str.1) #18
  %.not20 = icmp eq i32 %30, 0
  br i1 %.not20, label %33, label %31

31:                                               ; preds = %28
  %32 = load ptr, ptr %8, align 8, !tbaa !27
  tail call void @pdo_handle_error(ptr noundef %32, ptr noundef nonnull %7) #17
  br label %33

33:                                               ; preds = %31, %28
  %34 = getelementptr inbounds nuw i8, ptr %15, i64 88
  store i64 -1, ptr %34, align 8, !tbaa !154
  %35 = getelementptr inbounds nuw i8, ptr %15, i64 104
  store i32 0, ptr %35, align 8, !tbaa !37
  br label %36

36:                                               ; preds = %10, %33, %14, %4
  %.0 = phi ptr [ null, %4 ], [ null, %10 ], [ %15, %33 ], [ %15, %14 ]
  ret ptr %.0
}